; Function Attrs: mustprogress uwtable
define void @_ZNK3gmx14DataFileFinder8openFileERKNS_15DataFileOptionsE(ptr dead_on_unwind noalias writable sret(%"class.std::unique_ptr.21") align 8 %0, ptr nocapture noundef nonnull readonly align 8 dereferenceable(8) %1, ptr noundef nonnull align 8 dereferenceable(42) %2) local_unnamed_addr #0 align 2 personality ptr @__gxx_personality_v0 {
  %4 = alloca %"class.std::filesystem::__cxx11::path", align 8
  call void @_ZNK3gmx14DataFileFinder8findFileB5cxx11ERKNS_15DataFileOptionsE(ptr dead_on_unwind nonnull writable sret(%"class.std::filesystem::__cxx11::path") align 8 %4, ptr noundef nonnull align 8 dereferenceable(8) %1, ptr noundef nonnull align 8 dereferenceable(42) %2)
  %5 = call noundef zeroext i1 @_ZNKSt7__cxx1112basic_stringIcSt11char_traitsIcESaIcEE5emptyEv(ptr noundef nonnull align 8 dereferenceable(32) %4) #17
  br i1 %5, label %6, label %7

6:                                                ; preds = %3
  store ptr null, ptr %0, align 8
  br label %10

7:                                                ; preds = %3
  invoke void @_ZN3gmx13TextInputFile13openRawHandleERKNSt10filesystem7__cxx114pathE(ptr dead_on_unwind writable sret(%"class.std::unique_ptr.21") align 8 %0, ptr noundef nonnull align 8 dereferenceable(40) %4)
          to label %10 unwind label %8

8:                                                ; preds = %7
  %9 = landingpad { ptr, i32 }
          cleanup
  call void @_ZNSt10filesystem7__cxx114pathD2Ev(ptr noundef nonnull align 8 dereferenceable(40) %4) #17
  resume { ptr, i32 } %9

10:                                               ; preds = %7, %6
  %11 = getelementptr inbounds i8, ptr %4, i64 32
  %12 = load ptr, ptr %11, align 8
  %.not.i.i.i = icmp eq ptr %12, null
  br i1 %.not.i.i.i, label %_ZNSt10filesystem7__cxx114pathD2Ev.exit, label %13

13:                                               ; preds = %10
  call void @_ZNKSt10filesystem7__cxx114path5_List13_Impl_deleterclEPNS2_5_ImplE(ptr noundef nonnull align 1 dereferenceable(1) %11, ptr noundef nonnull %12) #17
  br label %_ZNSt10filesystem7__cxx114pathD2Ev.exit

_ZNSt10filesystem7__cxx114pathD2Ev.exit:          ; preds = %10, %13
  store ptr null, ptr %11, align 8
  call void @_ZNSt7__cxx1112basic_stringIcSt11char_traitsIcESaIcEED1Ev(ptr noundef nonnull align 8 dereferenceable(32) %4) #17
  ret void
}